target datalayout = "e-m:e-p270:32:32-p271:32:32-p272:64:64-i64:64-i128:128-f80:128-n8:16:32:64-S128"
target triple = "x86_64-pc-linux-gnu"

%struct.Vec_Int_t_ = type { i32, i32, ptr }

@.str.3 = private unnamed_addr constant [2 x i8] c"+\00", align 1
@.str.4 = private unnamed_addr constant [2 x i8] c"-\00", align 1
@.str.8 = private unnamed_addr constant [2 x i8] c"\0A\00", align 1
@.str.10 = private unnamed_addr constant [4 x i8] c"%c \00", align 1
@.str.11 = private unnamed_addr constant [7 x i8] c"%s2^%d\00", align 1
@.str.12 = private unnamed_addr constant [7 x i8] c" * i%d\00", align 1

; Function Attrs: nounwind uwtable
define internal i32 @Vec_IntSize(ptr noundef %0) #0 {
  %2 = alloca ptr, align 8
  store ptr %0, ptr %2, align 8
  %3 = load ptr, ptr %2, align 8
  %4 = getelementptr inbounds %struct.Vec_Int_t_, ptr %3, i32 0, i32 1
  %5 = load i32, ptr %4, align 4
  ret i32 %5
}

; Function Attrs: nounwind uwtable
define internal i32 @Abc_AbsInt(i32 noundef %0) #0 {
  %2 = alloca i32, align 4
  store i32 %0, ptr %2, align 4
  %3 = load i32, ptr %2, align 4
  %4 = icmp slt i32 %3, 0
  br i1 %4, label %5, label %8

5:                                                ; preds = %1
  %6 = load i32, ptr %2, align 4
  %7 = sub nsw i32 0, %6
  br label %10

8:                                                ; preds = %1
  %9 = load i32, ptr %2, align 4
  br label %10

10:                                               ; preds = %8, %5
  %11 = phi i32 [ %7, %5 ], [ %9, %8 ]
  ret i32 %11
}

; Function Attrs: nounwind uwtable
define internal i32 @Vec_IntEntry(ptr noundef %0, i32 noundef %1) #0 {
  %3 = alloca ptr, align 8
  %4 = alloca i32, align 4
  store ptr %0, ptr %3, align 8
  store i32 %1, ptr %4, align 4
  %5 = load ptr, ptr %3, align 8
  %6 = getelementptr inbounds %struct.Vec_Int_t_, ptr %5, i32 0, i32 2
  %7 = load ptr, ptr %6, align 8
  %8 = load i32, ptr %4, align 4
  %9 = sext i32 %8 to i64
  %10 = getelementptr inbounds i32, ptr %7, i64 %9
  %11 = load i32, ptr %10, align 4
  ret i32 %11
}

; Function Attrs: nounwind uwtable
define void @Gia_PolynPrintMono(ptr noundef %0, ptr noundef %1, i32 noundef %2) #0 {
  %4 = alloca ptr, align 8
  %5 = alloca ptr, align 8
  %6 = alloca i32, align 4
  %7 = alloca i32, align 4
  %8 = alloca i32, align 4
  store ptr %0, ptr %4, align 8
  store ptr %1, ptr %5, align 8
  store i32 %2, ptr %6, align 4
  %9 = load i32, ptr %6, align 4
  %10 = load ptr, ptr %4, align 8
  %11 = call i32 @Vec_IntEntry(ptr noundef %10, i32 noundef 0)
  %12 = call i32 @Abc_AbsInt(i32 noundef %11)
  %13 = icmp ne i32 %9, %12
  %14 = select i1 %13, i32 124, i32 32
  %15 = call i32 (ptr, ...) @printf(ptr noundef @.str.10, i32 noundef %14)
  store i32 0, ptr %7, align 4
  br label %16

16:                                               ; preds = %35, %3
  %17 = load i32, ptr %7, align 4
  %18 = load ptr, ptr %4, align 8
  %19 = call i32 @Vec_IntSize(ptr noundef %18)
  %20 = icmp slt i32 %17, %19
  br i1 %20, label %21, label %25

21:                                               ; preds = %16
  %22 = load ptr, ptr %4, align 8
  %23 = load i32, ptr %7, align 4
  %24 = call i32 @Vec_IntEntry(ptr noundef %22, i32 noundef %23)
  store i32 %24, ptr %8, align 4
  br label %25

25:                                               ; preds = %21, %16
  %26 = phi i1 [ false, %16 ], [ true, %21 ]
  br i1 %26, label %27, label %38

27:                                               ; preds = %25
  %28 = load i32, ptr %8, align 4
  %29 = icmp slt i32 %28, 0
  %30 = select i1 %29, ptr @.str.4, ptr @.str.3
  %31 = load i32, ptr %8, align 4
  %32 = call i32 @Abc_AbsInt(i32 noundef %31)
  %33 = sub nsw i32 %32, 1
  %34 = call i32 (ptr, ...) @printf(ptr noundef @.str.11, ptr noundef %30, i32 noundef %33)
  br label %35

35:                                               ; preds = %27
  %36 = load i32, ptr %7, align 4
  %37 = add nsw i32 %36, 1
  store i32 %37, ptr %7, align 4
  br label %16, !llvm.loop !17

38:                                               ; preds = %25
  store i32 0, ptr %7, align 4
  br label %39

39:                                               ; preds = %54, %38
  %40 = load i32, ptr %7, align 4
  %41 = load ptr, ptr %5, align 8
  %42 = call i32 @Vec_IntSize(ptr noundef %41)
  %43 = icmp slt i32 %40, %42
  br i1 %43, label %44, label %48

44:                                               ; preds = %39
  %45 = load ptr, ptr %5, align 8
  %46 = load i32, ptr %7, align 4
  %47 = call i32 @Vec_IntEntry(ptr noundef %45, i32 noundef %46)
  store i32 %47, ptr %8, align 4
  br label %48

48:                                               ; preds = %44, %39
  %49 = phi i1 [ false, %39 ], [ true, %44 ]
  br i1 %49, label %50, label %57

50:                                               ; preds = %48
  %51 = load i32, ptr %8, align 4
  %52 = sub nsw i32 %51, 1
  %53 = call i32 (ptr, ...) @printf(ptr noundef @.str.12, i32 noundef %52)
  br label %54

54:                                               ; preds = %50
  %55 = load i32, ptr %7, align 4
  %56 = add nsw i32 %55, 1
  store i32 %56, ptr %7, align 4
  br label %39, !llvm.loop !18

57:                                               ; preds = %48
  %58 = call i32 (ptr, ...) @printf(ptr noundef @.str.8)
  ret void
}