; Function Attrs: nofree nounwind uwtable
define void @Gia_PolynPrintMono(ptr noundef readonly captures(none) %0, ptr noundef readonly captures(none) %1, i32 noundef %2) local_unnamed_addr #7 {
  %4 = getelementptr i8, ptr %0, i64 8
  %.val19 = load ptr, ptr %4, align 8
  %5 = load i32, ptr %.val19, align 4
  %6 = tail call range(i32 0, -2147483648) i32 @llvm.abs.i32(i32 %5, i1 true)
  %.not = icmp eq i32 %2, %6
  %7 = select i1 %.not, i32 32, i32 124
  %8 = tail call i32 (ptr, ...) @printf(ptr noundef nonnull dereferenceable(1) @.str.10, i32 noundef %7)
  %9 = getelementptr i8, ptr %0, i64 4
  %.val1620 = load i32, ptr %9, align 4
  %10 = icmp sgt i32 %.val1620, 0
  br i1 %10, label %.lr.ph, label %.critedge.preheader

.critedge.preheader:                              ; preds = %.lr.ph, %3
  %11 = getelementptr i8, ptr %1, i64 4
  %.val22 = load i32, ptr %11, align 4
  %12 = icmp sgt i32 %.val22, 0
  br i1 %12, label %.lr.ph24, label %.critedge2

.lr.ph24:                                         ; preds = %.critedge.preheader
  %13 = getelementptr i8, ptr %1, i64 8
  br label %.critedge

.lr.ph:                                           ; preds = %3, %.lr.ph
  %indvars.iv = phi i64 [ %indvars.iv.next, %.lr.ph ], [ 0, %3 ]
  %.val18 = load ptr, ptr %4, align 8
  %14 = getelementptr inbounds nuw i32, ptr %.val18, i64 %indvars.iv
  %15 = load i32, ptr %14, align 4
  %16 = icmp slt i32 %15, 0
  %17 = select i1 %16, ptr @.str.4, ptr @.str.3
  %18 = tail call range(i32 0, -2147483648) i32 @llvm.abs.i32(i32 %15, i1 true)
  %19 = add nsw i32 %18, -1
  %20 = tail call i32 (ptr, ...) @printf(ptr noundef nonnull dereferenceable(1) @.str.11, ptr noundef nonnull %17, i32 noundef %19)
  %indvars.iv.next = add nuw nsw i64 %indvars.iv, 1
  %.val16 = load i32, ptr %9, align 4
  %21 = sext i32 %.val16 to i64
  %22 = icmp slt i64 %indvars.iv.next, %21
  br i1 %22, label %.lr.ph, label %.critedge.preheader, !llvm.loop !19

.critedge:                                        ; preds = %.lr.ph24, %.critedge
  %indvars.iv26 = phi i64 [ 0, %.lr.ph24 ], [ %indvars.iv.next27, %.critedge ]
  %.val17 = load ptr, ptr %13, align 8
  %23 = getelementptr inbounds nuw i32, ptr %.val17, i64 %indvars.iv26
  %24 = load i32, ptr %23, align 4
  %25 = add nsw i32 %24, -1
  %26 = tail call i32 (ptr, ...) @printf(ptr noundef nonnull dereferenceable(1) @.str.12, i32 noundef %25)
  %indvars.iv.next27 = add nuw nsw i64 %indvars.iv26, 1
  %.val = load i32, ptr %11, align 4
  %27 = sext i32 %.val to i64
  %28 = icmp slt i64 %indvars.iv.next27, %27
  br i1 %28, label %.critedge, label %.critedge2, !llvm.loop !20

.critedge2:                                       ; preds = %.critedge, %.critedge.preheader
  %putchar = tail call i32 @putchar(i32 10)
  ret void
}